; ModuleID = '43/1664.c'
source_filename = "43/1664.c"
target datalayout = "e-m:e-p270:32:32-p271:32:32-p272:64:64-i64:64-f80:128-n8:16:32:64-S128"
target triple = "x86_64-pc-linux-gnu"

@.str = private unnamed_addr constant [3 x i8] c"%d\00", align 1
@.str.1 = private unnamed_addr constant [7 x i8] c"%d %d\0A\00", align 1

; Function Attrs: noinline nounwind uwtable
define dso_local i32 @main() #0 {
  %1 = alloca i32, align 4
  %2 = alloca i32, align 4
  %3 = alloca i32, align 4
  %4 = alloca i32, align 4
  %5 = alloca i32, align 4
  %6 = alloca i32, align 4
  %7 = alloca i32, align 4
  %8 = alloca i32, align 4
  store i32 0, i32* %1, align 4
  %9 = call i32 (i8*, ...) @__isoc99_scanf(i8* getelementptr inbounds ([3 x i8], [3 x i8]* @.str, i64 0, i64 0), i32* %2)
  store i32 3, i32* %3, align 4
  br label %10

10:                                               ; preds = %66, %0
  %11 = load i32, i32* %3, align 4
  %12 = mul nsw i32 2, %11
  %13 = load i32, i32* %2, align 4
  %14 = icmp sle i32 %12, %13
  br i1 %14, label %15, label %69

15:                                               ; preds = %10
  %16 = load i32, i32* %2, align 4
  %17 = load i32, i32* %3, align 4
  %18 = sub nsw i32 %16, %17
  store i32 %18, i32* %4, align 4
  %19 = load i32, i32* %3, align 4
  %20 = sitofp i32 %19 to double
  %21 = call double @sqrt(double %20) #3
  %22 = fptosi double %21 to i32
  store i32 %22, i32* %5, align 4
  %23 = load i32, i32* %4, align 4
  %24 = sitofp i32 %23 to double
  %25 = call double @sqrt(double %24) #3
  %26 = fptosi double %25 to i32
  store i32 %26, i32* %6, align 4
  %27 = load i32, i32* %5, align 4
  store i32 %27, i32* %7, align 4
  %28 = load i32, i32* %6, align 4
  store i32 %28, i32* %8, align 4
  br label %29

29:                                               ; preds = %41, %15
  %30 = load i32, i32* %7, align 4
  %31 = icmp sge i32 %30, 2
  br i1 %31, label %32, label %42

32:                                               ; preds = %29
  %33 = load i32, i32* %3, align 4
  %34 = load i32, i32* %7, align 4
  %35 = srem i32 %33, %34
  %36 = icmp eq i32 %35, 0
  br i1 %36, label %37, label %38

37:                                               ; preds = %32
  br label %42

38:                                               ; preds = %32
  %39 = load i32, i32* %7, align 4
  %40 = add nsw i32 %39, -1
  store i32 %40, i32* %7, align 4
  br label %41

41:                                               ; preds = %38
  br label %29

42:                                               ; preds = %37, %29
  br label %43

43:                                               ; preds = %55, %42
  %44 = load i32, i32* %8, align 4
  %45 = icmp sge i32 %44, 2
  br i1 %45, label %46, label %56

46:                                               ; preds = %43
  %47 = load i32, i32* %4, align 4
  %48 = load i32, i32* %8, align 4
  %49 = srem i32 %47, %48
  %50 = icmp eq i32 %49, 0
  br i1 %50, label %51, label %52

51:                                               ; preds = %46
  br label %56

52:                                               ; preds = %46
  %53 = load i32, i32* %8, align 4
  %54 = add nsw i32 %53, -1
  store i32 %54, i32* %8, align 4
  br label %55

55:                                               ; preds = %52
  br label %43

56:                                               ; preds = %51, %43
  %57 = load i32, i32* %7, align 4
  %58 = icmp eq i32 %57, 1
  br i1 %58, label %59, label %66

59:                                               ; preds = %56
  %60 = load i32, i32* %8, align 4
  %61 = icmp eq i32 %60, 1
  br i1 %61, label %62, label %66

62:                                               ; preds = %59
  %63 = load i32, i32* %3, align 4
  %64 = load i32, i32* %4, align 4
  %65 = call i32 (i8*, ...) @printf(i8* getelementptr inbounds ([7 x i8], [7 x i8]* @.str.1, i64 0, i64 0), i32 %63, i32 %64)
  br label %66

66:                                               ; preds = %62, %59, %56
  %67 = load i32, i32* %3, align 4
  %68 = add nsw i32 %67, 1
  store i32 %68, i32* %3, align 4
  br label %10

69:                                               ; preds = %10
  ret i32 0
}

declare dso_local i32 @__isoc99_scanf(i8*, ...) #1

; Function Attrs: nounwind
declare dso_local double @sqrt(double) #2

declare dso_local i32 @printf(i8*, ...) #1


!llvm.module.flags = !{!0}
!llvm.ident = !{!1}

!0 = !{i32 1, !"wchar_size", i32 4}
!1 = !{!"clang version 10.0.0-4ubuntu1 "}
