; ModuleID = 'source-C-CXX/42/1664.c'
source_filename = "source-C-CXX/42/1664.c"
target datalayout = "e-m:e-p270:32:32-p271:32:32-p272:64:64-i64:64-f80:128-n8:16:32:64-S128"
target triple = "x86_64-pc-linux-gnu"

@.str = private unnamed_addr constant [3 x i8] c"%d\00", align 1
@.str.1 = private unnamed_addr constant [7 x i8] c"%d %d\0A\00", align 1

; Function Attrs: nofree nounwind sspstrong uwtable
define dso_local i32 @main() local_unnamed_addr #0 {
  %1 = alloca i32, align 4
  %2 = bitcast i32* %1 to i8*
  call void @llvm.lifetime.start.p0i8(i64 4, i8* nonnull %2) #4
  %3 = call i32 (i8*, ...) @__isoc99_scanf(i8* getelementptr inbounds ([3 x i8], [3 x i8]* @.str, i64 0, i64 0), i32* nonnull %1)
  %4 = load i32, i32* %1, align 4, !tbaa !5
  %5 = icmp slt i32 %4, 6
  br i1 %5, label %46, label %6

6:                                                ; preds = %0, %41
  %7 = phi i32 [ %44, %41 ], [ %4, %0 ]
  %8 = phi i32 [ %42, %41 ], [ 3, %0 ]
  %9 = sub nsw i32 %7, %8
  %10 = sitofp i32 %8 to double
  %11 = call double @sqrt(double %10) #4
  %12 = fptosi double %11 to i32
  %13 = sitofp i32 %9 to double
  %14 = call double @sqrt(double %13) #4
  %15 = fptosi double %14 to i32
  %16 = icmp sgt i32 %12, 1
  br i1 %16, label %17, label %24

17:                                               ; preds = %6, %21
  %18 = phi i32 [ %22, %21 ], [ %12, %6 ]
  %19 = srem i32 %8, %18
  %20 = icmp eq i32 %19, 0
  br i1 %20, label %24, label %21

21:                                               ; preds = %17
  %22 = add nsw i32 %18, -1
  %23 = icmp sgt i32 %18, 2
  br i1 %23, label %17, label %24, !llvm.loop !9

24:                                               ; preds = %21, %17, %6
  %25 = phi i32 [ %12, %6 ], [ %18, %17 ], [ 1, %21 ]
  %26 = icmp sgt i32 %15, 1
  br i1 %26, label %27, label %34

27:                                               ; preds = %24, %31
  %28 = phi i32 [ %32, %31 ], [ %15, %24 ]
  %29 = srem i32 %9, %28
  %30 = icmp eq i32 %29, 0
  br i1 %30, label %41, label %31

31:                                               ; preds = %27
  %32 = add nsw i32 %28, -1
  %33 = icmp sgt i32 %28, 2
  br i1 %33, label %27, label %34, !llvm.loop !11

34:                                               ; preds = %31, %24
  %35 = phi i32 [ %15, %24 ], [ 1, %31 ]
  %36 = icmp eq i32 %25, 1
  %37 = icmp eq i32 %35, 1
  %38 = select i1 %36, i1 %37, i1 false
  br i1 %38, label %39, label %41

39:                                               ; preds = %34
  %40 = call i32 (i8*, ...) @printf(i8* nonnull dereferenceable(1) getelementptr inbounds ([7 x i8], [7 x i8]* @.str.1, i64 0, i64 0), i32 %8, i32 %9)
  br label %41

41:                                               ; preds = %27, %39, %34
  %42 = add nuw nsw i32 %8, 1
  %43 = shl nuw nsw i32 %42, 1
  %44 = load i32, i32* %1, align 4, !tbaa !5
  %45 = icmp sgt i32 %43, %44
  br i1 %45, label %46, label %6, !llvm.loop !12

46:                                               ; preds = %41, %0
  call void @llvm.lifetime.end.p0i8(i64 4, i8* nonnull %2) #4
  ret i32 0
}

; Function Attrs: argmemonly mustprogress nofree nosync nounwind willreturn
declare void @llvm.lifetime.start.p0i8(i64 immarg, i8* nocapture) #1

; Function Attrs: nofree nounwind
declare noundef i32 @__isoc99_scanf(i8* nocapture noundef readonly, ...) local_unnamed_addr #2

; Function Attrs: mustprogress nofree nounwind willreturn
declare double @sqrt(double) local_unnamed_addr #3

; Function Attrs: nofree nounwind
declare noundef i32 @printf(i8* nocapture noundef readonly, ...) local_unnamed_addr #2

; Function Attrs: argmemonly mustprogress nofree nosync nounwind willreturn
declare void @llvm.lifetime.end.p0i8(i64 immarg, i8* nocapture) #1


!llvm.module.flags = !{!0, !1, !2, !3}
!llvm.ident = !{!4}

!0 = !{i32 1, !"wchar_size", i32 4}
!1 = !{i32 7, !"PIC Level", i32 2}
!2 = !{i32 7, !"PIE Level", i32 2}
!3 = !{i32 7, !"uwtable", i32 1}
!4 = !{!"clang version 13.0.0"}
!5 = !{!6, !6, i64 0}
!6 = !{!"int", !7, i64 0}
!7 = !{!"omnipotent char", !8, i64 0}
!8 = !{!"Simple C/C++ TBAA"}
!9 = distinct !{!9, !10}
!10 = !{!"llvm.loop.mustprogress"}
!11 = distinct !{!11, !10}
!12 = distinct !{!12, !10}
